; Function Attrs: nounwind uwtable
define hidden ptr @SDL_GL_GetProcAddress_REAL(ptr noundef %0) local_unnamed_addr #0 {
  %2 = load ptr, ptr @_this, align 8
  %.not = icmp eq ptr %2, null
  br i1 %.not, label %3, label %5

3:                                                ; preds = %1
  %4 = tail call zeroext i1 (ptr, ...) @SDL_SetError_REAL(ptr noundef nonnull @.str.1) #19
  br label %18

5:                                                ; preds = %1
  %6 = getelementptr inbounds nuw i8, ptr %2, i64 408
  %7 = load ptr, ptr %6, align 8
  %.not6 = icmp eq ptr %7, null
  br i1 %.not6, label %15, label %8

8:                                                ; preds = %5
  %9 = getelementptr inbounds nuw i8, ptr %2, i64 1032
  %10 = load i32, ptr %9, align 8
  %.not7 = icmp eq i32 %10, 0
  br i1 %.not7, label %13, label %11

11:                                               ; preds = %8
  %12 = tail call ptr %7(ptr noundef nonnull %2, ptr noundef %0) #19
  br label %18

13:                                               ; preds = %8
  %14 = tail call zeroext i1 (ptr, ...) @SDL_SetError_REAL(ptr noundef nonnull @.str.62) #19
  br label %18

15:                                               ; preds = %5
  %16 = load ptr, ptr %2, align 8
  %17 = tail call zeroext i1 (ptr, ...) @SDL_SetError_REAL(ptr noundef nonnull @.str.63, ptr noundef %16) #19
  br label %18

18:                                               ; preds = %15, %13, %11, %3
  %.03 = phi ptr [ null, %3 ], [ %12, %11 ], [ null, %13 ], [ null, %15 ]
  ret ptr %.03
}